target datalayout = "e-m:e-p270:32:32-p271:32:32-p272:64:64-i64:64-i128:128-f80:128-n8:16:32:64-S128"
target triple = "x86_64-pc-linux-gnu"

%struct.JNINativeInterface_ = type { ptr, ptr, ptr, ptr, ptr, ptr, ptr, ptr, ptr, ptr, ptr, ptr, ptr, ptr, ptr, ptr, ptr, ptr, ptr, ptr, ptr, ptr, ptr, ptr, ptr, ptr, ptr, ptr, ptr, ptr, ptr, ptr, ptr, ptr, ptr, ptr, ptr, ptr, ptr, ptr, ptr, ptr, ptr, ptr, ptr, ptr, ptr, ptr, ptr, ptr, ptr, ptr, ptr, ptr, ptr, ptr, ptr, ptr, ptr, ptr, ptr, ptr, ptr, ptr, ptr, ptr, ptr, ptr, ptr, ptr, ptr, ptr, ptr, ptr, ptr, ptr, ptr, ptr, ptr, ptr, ptr, ptr, ptr, ptr, ptr, ptr, ptr, ptr, ptr, ptr, ptr, ptr, ptr, ptr, ptr, ptr, ptr, ptr, ptr, ptr, ptr, ptr, ptr, ptr, ptr, ptr, ptr, ptr, ptr, ptr, ptr, ptr, ptr, ptr, ptr, ptr, ptr, ptr, ptr, ptr, ptr, ptr, ptr, ptr, ptr, ptr, ptr, ptr, ptr, ptr, ptr, ptr, ptr, ptr, ptr, ptr, ptr, ptr, ptr, ptr, ptr, ptr, ptr, ptr, ptr, ptr, ptr, ptr, ptr, ptr, ptr, ptr, ptr, ptr, ptr, ptr, ptr, ptr, ptr, ptr, ptr, ptr, ptr, ptr, ptr, ptr, ptr, ptr, ptr, ptr, ptr, ptr, ptr, ptr, ptr, ptr, ptr, ptr, ptr, ptr, ptr, ptr, ptr, ptr, ptr, ptr, ptr, ptr, ptr, ptr, ptr, ptr, ptr, ptr, ptr, ptr, ptr, ptr, ptr, ptr, ptr, ptr, ptr, ptr, ptr, ptr, ptr, ptr, ptr, ptr, ptr, ptr, ptr, ptr, ptr, ptr, ptr, ptr, ptr, ptr, ptr, ptr, ptr, ptr, ptr, ptr, ptr, ptr, ptr, ptr, ptr, ptr, ptr, ptr, ptr }

; Function Attrs: nounwind uwtable
define void @Java_sun_awt_X11_XlibWrapper_SetBitmapShape(ptr noundef %0, ptr noundef %1, i64 noundef %2, i64 noundef %3, i32 noundef %4, i32 noundef %5, ptr noundef %6) #0 {
  %8 = alloca ptr, align 8
  %9 = alloca ptr, align 8
  %10 = alloca i64, align 8
  %11 = alloca i64, align 8
  %12 = alloca i32, align 4
  %13 = alloca i32, align 4
  %14 = alloca ptr, align 8
  %15 = alloca i32, align 4
  %16 = alloca ptr, align 8
  %17 = alloca i8, align 1
  %18 = alloca i64, align 8
  %19 = alloca ptr, align 8
  %20 = alloca i32, align 4
  store ptr %0, ptr %8, align 8
  store ptr %1, ptr %9, align 8
  store i64 %2, ptr %10, align 8
  store i64 %3, ptr %11, align 8
  store i32 %4, ptr %12, align 4
  store i32 %5, ptr %13, align 4
  store ptr %6, ptr %14, align 8
  store i8 0, ptr %17, align 1
  %21 = load i32, ptr %12, align 4
  %22 = sdiv i32 %21, 2
  %23 = add nsw i32 %22, 1
  %24 = load i32, ptr %13, align 4
  %25 = mul nsw i32 %23, %24
  %26 = sext i32 %25 to i64
  store i64 %26, ptr %18, align 8
  %27 = load i32, ptr %12, align 4
  %28 = sdiv i32 %27, 2
  %29 = add nsw i32 %28, 1
  %30 = icmp sge i32 %29, 0
  br i1 %30, label %31, label %61

31:                                               ; preds = %7
  %32 = load i32, ptr %12, align 4
  %33 = sdiv i32 %32, 2
  %34 = add nsw i32 %33, 1
  %35 = sext i32 %34 to i64
  %36 = icmp ule i64 %35, -1
  br i1 %36, label %37, label %61

37:                                               ; preds = %31
  %38 = load i32, ptr %13, align 4
  %39 = icmp sge i32 %38, 0
  br i1 %39, label %40, label %61

40:                                               ; preds = %37
  %41 = load i32, ptr %13, align 4
  %42 = sext i32 %41 to i64
  %43 = icmp ule i64 %42, -1
  br i1 %43, label %44, label %61

44:                                               ; preds = %40
  %45 = load i32, ptr %12, align 4
  %46 = sdiv i32 %45, 2
  %47 = add nsw i32 %46, 1
  %48 = icmp eq i32 %47, 0
  br i1 %48, label %62, label %49

49:                                               ; preds = %44
  %50 = load i32, ptr %13, align 4
  %51 = icmp eq i32 %50, 0
  br i1 %51, label %62, label %52

52:                                               ; preds = %49
  %53 = load i32, ptr %13, align 4
  %54 = sext i32 %53 to i64
  %55 = load i32, ptr %12, align 4
  %56 = sdiv i32 %55, 2
  %57 = add nsw i32 %56, 1
  %58 = sext i32 %57 to i64
  %59 = udiv i64 -1, %58
  %60 = icmp ule i64 %54, %59
  br i1 %60, label %62, label %61

61:                                               ; preds = %52, %40, %37, %31, %7
  br label %149

62:                                               ; preds = %52, %49, %44
  %63 = load ptr, ptr %8, align 8
  %64 = load ptr, ptr %63, align 8
  %65 = getelementptr inbounds %struct.JNINativeInterface_, ptr %64, i32 0, i32 171
  %66 = load ptr, ptr %65, align 8
  %67 = load ptr, ptr %8, align 8
  %68 = load ptr, ptr %14, align 8
  %69 = call i32 %66(ptr noundef %67, ptr noundef %68)
  store i32 %69, ptr %15, align 4
  %70 = load i32, ptr %15, align 4
  %71 = icmp eq i32 %70, 0
  br i1 %71, label %78, label %72

72:                                               ; preds = %62
  %73 = load i32, ptr %15, align 4
  %74 = load i32, ptr %12, align 4
  %75 = load i32, ptr %13, align 4
  %76 = mul nsw i32 %74, %75
  %77 = icmp slt i32 %73, %76
  br i1 %77, label %78, label %79

78:                                               ; preds = %72, %62
  br label %149

79:                                               ; preds = %72
  %80 = load ptr, ptr %8, align 8
  %81 = load ptr, ptr %80, align 8
  %82 = getelementptr inbounds %struct.JNINativeInterface_, ptr %81, i32 0, i32 187
  %83 = load ptr, ptr %82, align 8
  %84 = load ptr, ptr %8, align 8
  %85 = load ptr, ptr %14, align 8
  %86 = call ptr %83(ptr noundef %84, ptr noundef %85, ptr noundef %17)
  store ptr %86, ptr %16, align 8
  %87 = load ptr, ptr %16, align 8
  %88 = icmp eq ptr %87, null
  br i1 %88, label %89, label %90

89:                                               ; preds = %79
  br label %149

90:                                               ; preds = %79
  %91 = load i64, ptr %18, align 8
  %92 = icmp uge i64 %91, 0
  br i1 %92, label %93, label %107

93:                                               ; preds = %90
  %94 = load i64, ptr %18, align 8
  %95 = icmp ule i64 %94, -1
  br i1 %95, label %96, label %107

96:                                               ; preds = %93
  %97 = load i64, ptr %18, align 8
  %98 = icmp eq i64 %97, 0
  br i1 %98, label %103, label %99

99:                                               ; preds = %96
  %100 = load i64, ptr %18, align 8
  %101 = udiv i64 -1, %100
  %102 = icmp ule i64 8, %101
  br i1 %102, label %103, label %107

103:                                              ; preds = %99, %96
  %104 = load i64, ptr %18, align 8
  %105 = mul i64 %104, 8
  %106 = call noalias ptr @malloc(i64 noundef %105) #11
  br label %108

107:                                              ; preds = %99, %93, %90
  br label %108

108:                                              ; preds = %107, %103
  %109 = phi ptr [ %106, %103 ], [ null, %107 ]
  store ptr %109, ptr %19, align 8
  %110 = load ptr, ptr %19, align 8
  %111 = icmp ne ptr %110, null
  br i1 %111, label %120, label %112

112:                                              ; preds = %108
  %113 = load ptr, ptr %8, align 8
  %114 = load ptr, ptr %113, align 8
  %115 = getelementptr inbounds %struct.JNINativeInterface_, ptr %114, i32 0, i32 195
  %116 = load ptr, ptr %115, align 8
  %117 = load ptr, ptr %8, align 8
  %118 = load ptr, ptr %14, align 8
  %119 = load ptr, ptr %16, align 8
  call void %116(ptr noundef %117, ptr noundef %118, ptr noundef %119, i32 noundef 2)
  br label %149

120:                                              ; preds = %108
  %121 = load i32, ptr %12, align 4
  %122 = load i32, ptr %13, align 4
  %123 = load ptr, ptr %16, align 8
  %124 = getelementptr inbounds i32, ptr %123, i64 2
  %125 = load ptr, ptr %19, align 8
  %126 = call i32 @BitmapToYXBandedRectangles(i32 noundef 32, i32 noundef %121, i32 noundef %122, ptr noundef %124, ptr noundef %125)
  store i32 %126, ptr %20, align 4
  %127 = load i64, ptr %10, align 8
  %128 = inttoptr i64 %127 to ptr
  %129 = load i64, ptr %11, align 8
  %130 = inttoptr i64 %129 to ptr
  %131 = ptrtoint ptr %130 to i64
  %132 = load ptr, ptr %19, align 8
  %133 = load i32, ptr %20, align 4
  call void @XShapeCombineRectangles(ptr noundef %128, i64 noundef %131, i32 noundef 1, i32 noundef 0, i32 noundef 0, ptr noundef %132, i32 noundef %133, i32 noundef 0, i32 noundef 3)
  %134 = load i64, ptr %10, align 8
  %135 = inttoptr i64 %134 to ptr
  %136 = load i64, ptr %11, align 8
  %137 = inttoptr i64 %136 to ptr
  %138 = ptrtoint ptr %137 to i64
  %139 = load ptr, ptr %19, align 8
  %140 = load i32, ptr %20, align 4
  call void @XShapeCombineRectangles(ptr noundef %135, i64 noundef %138, i32 noundef 0, i32 noundef 0, i32 noundef 0, ptr noundef %139, i32 noundef %140, i32 noundef 0, i32 noundef 3)
  %141 = load ptr, ptr %19, align 8
  call void @free(ptr noundef %141) #8
  %142 = load ptr, ptr %8, align 8
  %143 = load ptr, ptr %142, align 8
  %144 = getelementptr inbounds %struct.JNINativeInterface_, ptr %143, i32 0, i32 195
  %145 = load ptr, ptr %144, align 8
  %146 = load ptr, ptr %8, align 8
  %147 = load ptr, ptr %14, align 8
  %148 = load ptr, ptr %16, align 8
  call void %145(ptr noundef %146, ptr noundef %147, ptr noundef %148, i32 noundef 2)
  br label %149

149:                                              ; preds = %120, %112, %89, %78, %61
  ret void
}