; Function Attrs: nounwind uwtable
define void @Java_sun_awt_X11_XlibWrapper_SetBitmapShape(ptr noundef %0, ptr nocapture noundef readnone %1, i64 noundef %2, i64 noundef %3, i32 noundef %4, i32 noundef %5, ptr noundef %6) local_unnamed_addr #0 {
  %8 = alloca i8, align 1
  store i8 0, ptr %8, align 1
  %9 = sdiv i32 %4, 2
  %10 = add nsw i32 %9, 1
  %11 = mul nsw i32 %10, %5
  %12 = zext i32 %11 to i64
  %13 = icmp sgt i32 %4, -4
  %14 = icmp sgt i32 %5, -1
  %or.cond = and i1 %13, %14
  br i1 %or.cond, label %15, label %41

15:                                               ; preds = %7
  %16 = load ptr, ptr %0, align 8
  %17 = getelementptr inbounds i8, ptr %16, i64 1368
  %18 = load ptr, ptr %17, align 8
  %19 = tail call i32 %18(ptr noundef nonnull %0, ptr noundef %6) #14
  %20 = icmp eq i32 %19, 0
  %21 = mul nsw i32 %5, %4
  %22 = icmp slt i32 %19, %21
  %or.cond61 = select i1 %20, i1 true, i1 %22
  br i1 %or.cond61, label %41, label %23

23:                                               ; preds = %15
  %24 = load ptr, ptr %0, align 8
  %25 = getelementptr inbounds i8, ptr %24, i64 1496
  %26 = load ptr, ptr %25, align 8
  %27 = call ptr %26(ptr noundef nonnull %0, ptr noundef %6, ptr noundef nonnull %8) #14
  %28 = icmp eq ptr %27, null
  br i1 %28, label %41, label %29

29:                                               ; preds = %23
  %30 = icmp sgt i32 %11, -1
  br i1 %30, label %31, label %.sink.split

31:                                               ; preds = %29
  %32 = shl nuw nsw i64 %12, 3
  %33 = call noalias ptr @malloc(i64 noundef %32) #18
  %.not = icmp eq ptr %33, null
  br i1 %.not, label %.sink.split, label %34

34:                                               ; preds = %31
  %35 = getelementptr inbounds i8, ptr %27, i64 8
  %36 = call i32 @BitmapToYXBandedRectangles(i32 noundef 32, i32 noundef %4, i32 noundef %5, ptr noundef nonnull %35, ptr noundef nonnull %33) #14
  %37 = inttoptr i64 %2 to ptr
  call void @XShapeCombineRectangles(ptr noundef %37, i64 noundef %3, i32 noundef 1, i32 noundef 0, i32 noundef 0, ptr noundef nonnull %33, i32 noundef %36, i32 noundef 0, i32 noundef 3) #14
  call void @XShapeCombineRectangles(ptr noundef %37, i64 noundef %3, i32 noundef 0, i32 noundef 0, i32 noundef 0, ptr noundef nonnull %33, i32 noundef %36, i32 noundef 0, i32 noundef 3) #14
  call void @free(ptr noundef nonnull %33) #14
  br label %.sink.split

.sink.split:                                      ; preds = %31, %29, %34
  %38 = load ptr, ptr %0, align 8
  %39 = getelementptr inbounds i8, ptr %38, i64 1560
  %40 = load ptr, ptr %39, align 8
  call void %40(ptr noundef nonnull %0, ptr noundef %6, ptr noundef nonnull %27, i32 noundef 2) #14
  br label %41

41:                                               ; preds = %.sink.split, %23, %15, %7
  ret void
}